((lp0
S'/home/sun/LipNet/LipNet/training/overlapped_speakers/s1/datasets/train/s1/11'
p1
aS'/home/sun/LipNet/LipNet/training/overlapped_speakers/s1/datasets/train/s1/1'
p2
aS'/home/sun/LipNet/LipNet/training/overlapped_speakers/s1/datasets/train/s1/13'
p3
aS'/home/sun/LipNet/LipNet/training/overlapped_speakers/s1/datasets/train/s1/7'
p4
aS'/home/sun/LipNet/LipNet/training/overlapped_speakers/s1/datasets/train/s1/2'
p5
aS'/home/sun/LipNet/LipNet/training/overlapped_speakers/s1/datasets/train/s1/14'
p6
aS'/home/sun/LipNet/LipNet/training/overlapped_speakers/s1/datasets/train/s1/4'
p7
aS'/home/sun/LipNet/LipNet/training/overlapped_speakers/s1/datasets/train/s1/3'
p8
aS'/home/sun/LipNet/LipNet/training/overlapped_speakers/s1/datasets/train/s1/10'
p9
aS'/home/sun/LipNet/LipNet/training/overlapped_speakers/s1/datasets/train/s1/8'
p10
aS'/home/sun/LipNet/LipNet/training/overlapped_speakers/s1/datasets/train/s1/12'
p11
aS'/home/sun/LipNet/LipNet/training/overlapped_speakers/s1/datasets/train/s1/6'
p12
aS'/home/sun/LipNet/LipNet/training/overlapped_speakers/s1/datasets/train/s1/5'
p13
aS'/home/sun/LipNet/LipNet/training/overlapped_speakers/s1/datasets/train/s1/9'
p14
a(lp15
S'/home/sun/LipNet/LipNet/training/overlapped_speakers/s1/datasets/val/s1/11'
p16
aS'/home/sun/LipNet/LipNet/training/overlapped_speakers/s1/datasets/val/s1/1'
p17
aS'/home/sun/LipNet/LipNet/training/overlapped_speakers/s1/datasets/val/s1/13'
p18
aS'/home/sun/LipNet/LipNet/training/overlapped_speakers/s1/datasets/val/s1/7'
p19
aS'/home/sun/LipNet/LipNet/training/overlapped_speakers/s1/datasets/val/s1/2'
p20
aS'/home/sun/LipNet/LipNet/training/overlapped_speakers/s1/datasets/val/s1/14'
p21
aS'/home/sun/LipNet/LipNet/training/overlapped_speakers/s1/datasets/val/s1/4'
p22
aS'/home/sun/LipNet/LipNet/training/overlapped_speakers/s1/datasets/val/s1/3'
p23
aS'/home/sun/LipNet/LipNet/training/overlapped_speakers/s1/datasets/val/s1/10'
p24
aS'/home/sun/LipNet/LipNet/training/overlapped_speakers/s1/datasets/val/s1/8'
p25
aS'/home/sun/LipNet/LipNet/training/overlapped_speakers/s1/datasets/val/s1/12'
p26
aS'/home/sun/LipNet/LipNet/training/overlapped_speakers/s1/datasets/val/s1/6'
p27
aS'/home/sun/LipNet/LipNet/training/overlapped_speakers/s1/datasets/val/s1/5'
p28
aS'/home/sun/LipNet/LipNet/training/overlapped_speakers/s1/datasets/val/s1/9'
p29
a(dp30
S'11'
p31
ccopy_reg
_reconstructor
p32
(clipnet.lipreading.aligns
Align
p33
c__builtin__
object
p34
Ntp35
Rp36
(dp37
S'sentence'
p38
V\ud0a4\uc754
p39
sS'label_func'
p40
clipnet.lipreading.helpers
text_to_labels
p41
sS'align'
p42
(lp43
(I30
I74
g39
tp44
asS'absolute_max_string_len'
p45
I32
sS'label'
p46
(lp47
I9380
aI6996
asS'padded_label'
p48
(lp49
I9380
aI6996
aI-1
aI-1
aI-1
aI-1
aI-1
aI-1
aI-1
aI-1
aI-1
aI-1
aI-1
aI-1
aI-1
aI-1
aI-1
aI-1
aI-1
aI-1
aI-1
aI-1
aI-1
aI-1
aI-1
aI-1
aI-1
aI-1
aI-1
aI-1
aI-1
aI-1
asbsS'10'
p50
g32
(g33
g34
Ntp51
Rp52
(dp53
g38
V\uce58\uc753
p54
sg40
g41
sg42
(lp55
(I25
I74
g54
tp56
asg45
I32
sg46
(lp57
I8792
aI6995
asg48
(lp58
I8792
aI6995
aI-1
aI-1
aI-1
aI-1
aI-1
aI-1
aI-1
aI-1
aI-1
aI-1
aI-1
aI-1
aI-1
aI-1
aI-1
aI-1
aI-1
aI-1
aI-1
aI-1
aI-1
aI-1
aI-1
aI-1
aI-1
aI-1
aI-1
aI-1
aI-1
aI-1
asbsS'13'
p59
g32
(g33
g34
Ntp60
Rp61
(dp62
g38
V\ud53c\uc756
p63
sg40
g41
sg42
(lp64
(I33
I74
g63
tp65
asg45
I32
sg46
(lp66
I10556
aI6998
asg48
(lp67
I10556
aI6998
aI-1
aI-1
aI-1
aI-1
aI-1
aI-1
aI-1
aI-1
aI-1
aI-1
aI-1
aI-1
aI-1
aI-1
aI-1
aI-1
aI-1
aI-1
aI-1
aI-1
aI-1
aI-1
aI-1
aI-1
aI-1
aI-1
aI-1
aI-1
aI-1
aI-1
asbsS'12'
p68
g32
(g33
g34
Ntp69
Rp70
(dp71
g38
V\ud2f0\uc755
p72
sg40
g41
sg42
(lp73
(I28
I74
g72
tp74
asg45
I32
sg46
(lp75
I9968
aI6997
asg48
(lp76
I9968
aI6997
aI-1
aI-1
aI-1
aI-1
aI-1
aI-1
aI-1
aI-1
aI-1
aI-1
aI-1
aI-1
aI-1
aI-1
aI-1
aI-1
aI-1
aI-1
aI-1
aI-1
aI-1
aI-1
aI-1
aI-1
aI-1
aI-1
aI-1
aI-1
aI-1
aI-1
asbsS'14'
p77
g32
(g33
g34
Ntp78
Rp79
(dp80
g38
V\ud788\uc757
p81
sg40
g41
sg42
(lp82
(I23
I74
g81
tp83
asg45
I32
sg46
(lp84
I11144
aI6999
asg48
(lp85
I11144
aI6999
aI-1
aI-1
aI-1
aI-1
aI-1
aI-1
aI-1
aI-1
aI-1
aI-1
aI-1
aI-1
aI-1
aI-1
aI-1
aI-1
aI-1
aI-1
aI-1
aI-1
aI-1
aI-1
aI-1
aI-1
aI-1
aI-1
aI-1
aI-1
aI-1
aI-1
asbsS'1'
p86
g32
(g33
g34
Ntp87
Rp88
(dp89
g38
V\uae30\uc5ed
p90
sg40
g41
sg42
(lp91
(I13
I74
g90
tp92
asg45
I32
sg46
(lp93
I560
aI6637
asg48
(lp94
I560
aI6637
aI-1
aI-1
aI-1
aI-1
aI-1
aI-1
aI-1
aI-1
aI-1
aI-1
aI-1
aI-1
aI-1
aI-1
aI-1
aI-1
aI-1
aI-1
aI-1
aI-1
aI-1
aI-1
aI-1
aI-1
aI-1
aI-1
aI-1
aI-1
aI-1
aI-1
asbsS'3'
p95
g32
(g33
g34
Ntp96
Rp97
(dp98
g38
V\ub514\uadff
p99
sg40
g41
sg42
(lp100
(I17
I74
g99
tp101
asg45
I32
sg46
(lp102
I2324
aI511
asg48
(lp103
I2324
aI511
aI-1
aI-1
aI-1
aI-1
aI-1
aI-1
aI-1
aI-1
aI-1
aI-1
aI-1
aI-1
aI-1
aI-1
aI-1
aI-1
aI-1
aI-1
aI-1
aI-1
aI-1
aI-1
aI-1
aI-1
aI-1
aI-1
aI-1
aI-1
aI-1
aI-1
asbsS'2'
p104
g32
(g33
g34
Ntp105
Rp106
(dp107
g38
V\ub2c8\uc740
p108
sg40
g41
sg42
(lp109
(I18
I74
g108
tp110
asg45
I32
sg46
(lp111
I1736
aI6976
asg48
(lp112
I1736
aI6976
aI-1
aI-1
aI-1
aI-1
aI-1
aI-1
aI-1
aI-1
aI-1
aI-1
aI-1
aI-1
aI-1
aI-1
aI-1
aI-1
aI-1
aI-1
aI-1
aI-1
aI-1
aI-1
aI-1
aI-1
aI-1
aI-1
aI-1
aI-1
aI-1
aI-1
asbsS'5'
p113
g32
(g33
g34
Ntp114
Rp115
(dp116
g38
V\ubbf8\uc74c
p117
sg40
g41
sg42
(lp118
(I23
I74
g117
tp119
asg45
I32
sg46
(lp120
I4088
aI6988
asg48
(lp121
I4088
aI6988
aI-1
aI-1
aI-1
aI-1
aI-1
aI-1
aI-1
aI-1
aI-1
aI-1
aI-1
aI-1
aI-1
aI-1
aI-1
aI-1
aI-1
aI-1
aI-1
aI-1
aI-1
aI-1
aI-1
aI-1
aI-1
aI-1
aI-1
aI-1
aI-1
aI-1
asbsS'4'
p122
g32
(g33
g34
Ntp123
Rp124
(dp125
g38
V\ub9ac\uc744
p126
sg40
g41
sg42
(lp127
(I29
I74
g126
tp128
asg45
I32
sg46
(lp129
I3500
aI6980
asg48
(lp130
I3500
aI6980
aI-1
aI-1
aI-1
aI-1
aI-1
aI-1
aI-1
aI-1
aI-1
aI-1
aI-1
aI-1
aI-1
aI-1
aI-1
aI-1
aI-1
aI-1
aI-1
aI-1
aI-1
aI-1
aI-1
aI-1
aI-1
aI-1
aI-1
aI-1
aI-1
aI-1
asbsS'7'
p131
g32
(g33
g34
Ntp132
Rp133
(dp134
g38
V\uc2dc\uc637
p135
sg40
g41
sg42
(lp136
(I15
I74
g135
tp137
asg45
I32
sg46
(lp138
I5852
aI6711
asg48
(lp139
I5852
aI6711
aI-1
aI-1
aI-1
aI-1
aI-1
aI-1
aI-1
aI-1
aI-1
aI-1
aI-1
aI-1
aI-1
aI-1
aI-1
aI-1
aI-1
aI-1
aI-1
aI-1
aI-1
aI-1
aI-1
aI-1
aI-1
aI-1
aI-1
aI-1
aI-1
aI-1
asbsS'6'
p140
g32
(g33
g34
Ntp141
Rp142
(dp143
g38
V\ube44\uc74d
p144
sg40
g41
sg42
(lp145
(I29
I74
g144
tp146
asg45
I32
sg46
(lp147
I4676
aI6989
asg48
(lp148
I4676
aI6989
aI-1
aI-1
aI-1
aI-1
aI-1
aI-1
aI-1
aI-1
aI-1
aI-1
aI-1
aI-1
aI-1
aI-1
aI-1
aI-1
aI-1
aI-1
aI-1
aI-1
aI-1
aI-1
aI-1
aI-1
aI-1
aI-1
aI-1
aI-1
aI-1
aI-1
asbsS'9'
p149
g32
(g33
g34
Ntp150
Rp151
(dp152
g38
V\uc9c0\uc752
p153
sg40
g41
sg42
(lp154
(I21
I74
g153
tp155
asg45
I32
sg46
(lp156
I7616
aI6994
asg48
(lp157
I7616
aI6994
aI-1
aI-1
aI-1
aI-1
aI-1
aI-1
aI-1
aI-1
aI-1
aI-1
aI-1
aI-1
aI-1
aI-1
aI-1
aI-1
aI-1
aI-1
aI-1
aI-1
aI-1
aI-1
aI-1
aI-1
aI-1
aI-1
aI-1
aI-1
aI-1
aI-1
asbsS'8'
p158
g32
(g33
g34
Ntp159
Rp160
(dp161
g38
V\uc774\uc751
p162
sg40
g41
sg42
(lp163
(I20
I74
g162
tp164
asg45
I32
sg46
(lp165
I7028
aI6993
asg48
(lp166
I7028
aI6993
aI-1
aI-1
aI-1
aI-1
aI-1
aI-1
aI-1
aI-1
aI-1
aI-1
aI-1
aI-1
aI-1
aI-1
aI-1
aI-1
aI-1
aI-1
aI-1
aI-1
aI-1
aI-1
aI-1
aI-1
aI-1
aI-1
aI-1
aI-1
aI-1
aI-1
asbstp167
.