((lp0
S'/home/sun/LipNet/LipNet/training/overlapped_speakers/s5/datasets/train/s1/csusr'
p1
aS'/home/sun/LipNet/LipNet/training/overlapped_speakers/s5/datasets/train/s1/csufy'
p2
aS'/home/sun/LipNet/LipNet/training/overlapped_speakers/s5/datasets/train/s1/csbfr'
p3
aS'/home/sun/LipNet/LipNet/training/overlapped_speakers/s5/datasets/train/s1/csbfy'
p4
aS'/home/sun/LipNet/LipNet/training/overlapped_speakers/s5/datasets/train/s1/csuor'
p5
aS'/home/sun/LipNet/LipNet/training/overlapped_speakers/s5/datasets/train/s1/csbso'
p6
aS'/home/sun/LipNet/LipNet/training/overlapped_speakers/s5/datasets/train/s1/cssfo'
p7
aS'/home/sun/LipNet/LipNet/training/overlapped_speakers/s5/datasets/train/s1/csssr'
p8
aS'/home/sun/LipNet/LipNet/training/overlapped_speakers/s5/datasets/train/s1/csuoo'
p9
aS'/home/sun/LipNet/LipNet/training/overlapped_speakers/s5/datasets/train/s1/csssy'
p10
aS'/home/sun/LipNet/LipNet/training/overlapped_speakers/s5/datasets/train/s1/cssoy'
p11
aS'/home/sun/LipNet/LipNet/training/overlapped_speakers/s5/datasets/train/s1/csufr'
p12
aS'/home/sun/LipNet/LipNet/training/overlapped_speakers/s5/datasets/train/s1/csusy'
p13
aS'/home/sun/LipNet/LipNet/training/overlapped_speakers/s5/datasets/train/s1/csuoy'
p14
aS'/home/sun/LipNet/LipNet/training/overlapped_speakers/s5/datasets/train/s1/cssfr'
p15
aS'/home/sun/LipNet/LipNet/training/overlapped_speakers/s5/datasets/train/s1/csboy'
p16
aS'/home/sun/LipNet/LipNet/training/overlapped_speakers/s5/datasets/train/s1/csboo'
p17
aS'/home/sun/LipNet/LipNet/training/overlapped_speakers/s5/datasets/train/s1/csbsr'
p18
aS'/home/sun/LipNet/LipNet/training/overlapped_speakers/s5/datasets/train/s1/csbsy'
p19
aS'/home/sun/LipNet/LipNet/training/overlapped_speakers/s5/datasets/train/s1/cssor'
p20
aS'/home/sun/LipNet/LipNet/training/overlapped_speakers/s5/datasets/train/s1/csbfo'
p21
aS'/home/sun/LipNet/LipNet/training/overlapped_speakers/s5/datasets/train/s1/csufo'
p22
aS'/home/sun/LipNet/LipNet/training/overlapped_speakers/s5/datasets/train/s1/csbor'
p23
aS'/home/sun/LipNet/LipNet/training/overlapped_speakers/s5/datasets/train/s1/cssso'
p24
aS'/home/sun/LipNet/LipNet/training/overlapped_speakers/s5/datasets/train/s1/cssfy'
p25
aS'/home/sun/LipNet/LipNet/training/overlapped_speakers/s5/datasets/train/s1/cssoo'
p26
aS'/home/sun/LipNet/LipNet/training/overlapped_speakers/s5/datasets/train/s1/csuso'
p27
a(lp28
S'/home/sun/LipNet/LipNet/training/overlapped_speakers/s5/datasets/val/s1/csusr'
p29
aS'/home/sun/LipNet/LipNet/training/overlapped_speakers/s5/datasets/val/s1/csbfy'
p30
aS'/home/sun/LipNet/LipNet/training/overlapped_speakers/s5/datasets/val/s1/csuoo'
p31
aS'/home/sun/LipNet/LipNet/training/overlapped_speakers/s5/datasets/val/s1/cssoy'
p32
aS'/home/sun/LipNet/LipNet/training/overlapped_speakers/s5/datasets/val/s1/cssfr'
p33
aS'/home/sun/LipNet/LipNet/training/overlapped_speakers/s5/datasets/val/s1/csbfo'
p34
a(dp35
S'cssfr'
p36
ccopy_reg
_reconstructor
p37
(clipnet.lipreading.aligns
Align
p38
c__builtin__
object
p39
Ntp40
Rp41
(dp42
S'sentence'
p43
V\ubd84\ud544 \ucd95\uad6c \ub530\ub77c\uc11c \uc0ac \ube68\uac15
p44
sS'label_func'
p45
clipnet.lipreading.helpers
text_to_labels
p46
sS'align'
p47
(lp48
(I0
I19
V\ubd84\ud544
p49
tp50
a(I19
I34
V\ucd95\uad6c
p51
tp52
a(I34
I43
V\ub530\ub77c\uc11c
p53
tp54
a(I43
I51
V\uc0ac
p55
tp56
a(I51
I74
V\ube68\uac15
p57
tp58
asS'absolute_max_string_len'
p59
I32
sS'label'
p60
(lp61
I4484
aI10564
aI11172
aI8597
aI364
aI11172
aI2352
aI2940
aI5404
aI11172
aI5292
aI11172
aI4712
aI21
asS'padded_label'
p62
(lp63
I4484
aI10564
aI11172
aI8597
aI364
aI11172
aI2352
aI2940
aI5404
aI11172
aI5292
aI11172
aI4712
aI21
aI-1
aI-1
aI-1
aI-1
aI-1
aI-1
aI-1
aI-1
aI-1
aI-1
aI-1
aI-1
aI-1
aI-1
aI-1
aI-1
aI-1
aI-1
asbsS'cssfy'
p64
g37
(g38
g39
Ntp65
Rp66
(dp67
g43
V\ubd84\ud544 \ucd95\uad6c \ub530\ub77c\uc11c \uc0ac \ub178\ub791
p68
sg45
g46
sg47
(lp69
(I0
I21
V\ubd84\ud544
p70
tp71
a(I21
I37
V\ucd95\uad6c
p72
tp73
a(I37
I46
V\ub530\ub77c\uc11c
p74
tp75
a(I46
I58
V\uc0ac
p76
tp77
a(I58
I74
V\ub178\ub791
p78
tp79
asg59
I32
sg60
(lp80
I4484
aI10564
aI11172
aI8597
aI364
aI11172
aI2352
aI2940
aI5404
aI11172
aI5292
aI11172
aI1400
aI2961
asg62
(lp81
I4484
aI10564
aI11172
aI8597
aI364
aI11172
aI2352
aI2940
aI5404
aI11172
aI5292
aI11172
aI1400
aI2961
aI-1
aI-1
aI-1
aI-1
aI-1
aI-1
aI-1
aI-1
aI-1
aI-1
aI-1
aI-1
aI-1
aI-1
aI-1
aI-1
aI-1
aI-1
asbsS'cssfo'
p82
g37
(g38
g39
Ntp83
Rp84
(dp85
g43
V\ubd84\ud544 \ucd95\uad6c \ub530\ub77c\uc11c \uc0ac \uc8fc\ud669
p86
sg45
g46
sg47
(lp87
(I0
I20
V\ubd84\ud544
p88
tp89
a(I20
I35
V\ucd95\uad6c
p90
tp91
a(I35
I43
V\ub530\ub77c\uc11c
p92
tp93
a(I43
I52
V\uc0ac
p94
tp95
a(I52
I74
V\uc8fc\ud669
p96
tp97
asg59
I32
sg60
(lp98
I4484
aI10564
aI11172
aI8597
aI364
aI11172
aI2352
aI2940
aI5404
aI11172
aI5292
aI11172
aI7420
aI10857
asg62
(lp99
I4484
aI10564
aI11172
aI8597
aI364
aI11172
aI2352
aI2940
aI5404
aI11172
aI5292
aI11172
aI7420
aI10857
aI-1
aI-1
aI-1
aI-1
aI-1
aI-1
aI-1
aI-1
aI-1
aI-1
aI-1
aI-1
aI-1
aI-1
aI-1
aI-1
aI-1
aI-1
asbsS'cssoo'
p100
g37
(g38
g39
Ntp101
Rp102
(dp103
g43
V\ubd84\ud544 \ucd95\uad6c \ub530\ub77c\uc11c \uc77c \uc8fc\ud669
p104
sg45
g46
sg47
(lp105
(I0
I21
V\ubd84\ud544
p106
tp107
a(I21
I35
V\ucd95\uad6c
p108
tp109
a(I35
I47
V\ub530\ub77c\uc11c
p110
tp111
a(I47
I55
V\uc77c
p112
tp113
a(I55
I74
V\uc8fc\ud669
p114
tp115
asg59
I32
sg60
(lp116
I4484
aI10564
aI11172
aI8597
aI364
aI11172
aI2352
aI2940
aI5404
aI11172
aI7036
aI11172
aI7420
aI10857
asg62
(lp117
I4484
aI10564
aI11172
aI8597
aI364
aI11172
aI2352
aI2940
aI5404
aI11172
aI7036
aI11172
aI7420
aI10857
aI-1
aI-1
aI-1
aI-1
aI-1
aI-1
aI-1
aI-1
aI-1
aI-1
aI-1
aI-1
aI-1
aI-1
aI-1
aI-1
aI-1
aI-1
asbsS'csuoy'
p118
g37
(g38
g39
Ntp119
Rp120
(dp121
g43
V\ubd84\ud544 \ucd95\uad6c \ud558\uc9c0\ub9cc \uc77c \ub178\ub791
p122
sg45
g46
sg47
(lp123
(I0
I23
V\ubd84\ud544
p124
tp125
a(I23
I33
V\ucd95\uad6c
p126
tp127
a(I33
I47
V\ud558\uc9c0\ub9cc
p128
tp129
a(I47
I59
V\uc77c
p130
tp131
a(I59
I74
V\ub178\ub791
p132
tp133
asg59
I32
sg60
(lp134
I4484
aI10564
aI11172
aI8597
aI364
aI11172
aI10584
aI7616
aI3532
aI11172
aI7036
aI11172
aI1400
aI2961
asg62
(lp135
I4484
aI10564
aI11172
aI8597
aI364
aI11172
aI10584
aI7616
aI3532
aI11172
aI7036
aI11172
aI1400
aI2961
aI-1
aI-1
aI-1
aI-1
aI-1
aI-1
aI-1
aI-1
aI-1
aI-1
aI-1
aI-1
aI-1
aI-1
aI-1
aI-1
aI-1
aI-1
asbsS'csuor'
p136
g37
(g38
g39
Ntp137
Rp138
(dp139
g43
V\ubd84\ud544 \ucd95\uad6c \ud558\uc9c0\ub9cc \uc77c \uc8fc\ud669
p140
sg45
g46
sg47
(lp141
(I0
I24
V\ubd84\ud544
p142
tp143
a(I24
I34
V\ucd95\uad6c
p144
tp145
a(I34
I48
V\ud558\uc9c0\ub9cc
p146
tp147
a(I48
I60
V\uc77c
p148
tp149
a(I60
I74
V\uc8fc\ud669
p150
tp151
asg59
I32
sg60
(lp152
I4484
aI10564
aI11172
aI8597
aI364
aI11172
aI10584
aI7616
aI3532
aI11172
aI7036
aI11172
aI7420
aI10857
asg62
(lp153
I4484
aI10564
aI11172
aI8597
aI364
aI11172
aI10584
aI7616
aI3532
aI11172
aI7036
aI11172
aI7420
aI10857
aI-1
aI-1
aI-1
aI-1
aI-1
aI-1
aI-1
aI-1
aI-1
aI-1
aI-1
aI-1
aI-1
aI-1
aI-1
aI-1
aI-1
aI-1
asbsS'csuoo'
p154
g37
(g38
g39
Ntp155
Rp156
(dp157
g43
V\ubd84\ud544 \ucd95\uad6c \ud558\uc9c0\ub9cc \uc77c \uc8fc\ud669
p158
sg45
g46
sg47
(lp159
(I0
I19
V\ubd84\ud544
p160
tp161
a(I19
I33
V\ucd95\uad6c
p162
tp163
a(I33
I45
V\ud558\uc9c0\ub9cc
p164
tp165
a(I45
I56
V\uc77c
p166
tp167
a(I56
I74
V\uc8fc\ud669
p168
tp169
asg59
I32
sg60
(lp170
I4484
aI10564
aI11172
aI8597
aI364
aI11172
aI10584
aI7616
aI3532
aI11172
aI7036
aI11172
aI7420
aI10857
asg62
(lp171
I4484
aI10564
aI11172
aI8597
aI364
aI11172
aI10584
aI7616
aI3532
aI11172
aI7036
aI11172
aI7420
aI10857
aI-1
aI-1
aI-1
aI-1
aI-1
aI-1
aI-1
aI-1
aI-1
aI-1
aI-1
aI-1
aI-1
aI-1
aI-1
aI-1
aI-1
aI-1
asbsS'cssoy'
p172
g37
(g38
g39
Ntp173
Rp174
(dp175
g43
V\ubd84\ud544 \ucd95\uad6c \ub530\ub77c\uc11c \uc77c \ub178\ub791
p176
sg45
g46
sg47
(lp177
(I0
I20
V\ubd84\ud544
p178
tp179
a(I20
I31
V\ucd95\uad6c
p180
tp181
a(I31
I50
V\ub530\ub77c\uc11c
p182
tp183
a(I50
I56
V\uc77c
p184
tp185
a(I56
I74
V\ub178\ub791
p186
tp187
asg59
I32
sg60
(lp188
I4484
aI10564
aI11172
aI8597
aI364
aI11172
aI2352
aI2940
aI5404
aI11172
aI7036
aI11172
aI1400
aI2961
asg62
(lp189
I4484
aI10564
aI11172
aI8597
aI364
aI11172
aI2352
aI2940
aI5404
aI11172
aI7036
aI11172
aI1400
aI2961
aI-1
aI-1
aI-1
aI-1
aI-1
aI-1
aI-1
aI-1
aI-1
aI-1
aI-1
aI-1
aI-1
aI-1
aI-1
aI-1
aI-1
aI-1
asbsS'cssor'
p190
g37
(g38
g39
Ntp191
Rp192
(dp193
g43
V\ubd84\ud544 \ucd95\uad6c \ub530\ub77c\uc11c \uc77c \ube68\uac15
p194
sg45
g46
sg47
(lp195
(I0
I23
V\ubd84\ud544
p196
tp197
a(I23
I34
V\ucd95\uad6c
p198
tp199
a(I34
I48
V\ub530\ub77c\uc11c
p200
tp201
a(I48
I55
V\uc77c
p202
tp203
a(I55
I74
V\ube68\uac15
p204
tp205
asg59
I32
sg60
(lp206
I4484
aI10564
aI11172
aI8597
aI364
aI11172
aI2352
aI2940
aI5404
aI11172
aI7036
aI11172
aI4712
aI21
asg62
(lp207
I4484
aI10564
aI11172
aI8597
aI364
aI11172
aI2352
aI2940
aI5404
aI11172
aI7036
aI11172
aI4712
aI21
aI-1
aI-1
aI-1
aI-1
aI-1
aI-1
aI-1
aI-1
aI-1
aI-1
aI-1
aI-1
aI-1
aI-1
aI-1
aI-1
aI-1
aI-1
asbsS'csbfo'
p208
g37
(g38
g39
Ntp209
Rp210
(dp211
g43
V\ubd84\ud544 \ucd95\uad6c \uadf8\ub7ec\ub098 \uc0ac \uc8fc\ud669
p212
sg45
g46
sg47
(lp213
(I0
I25
V\ubd84\ud544
p214
tp215
a(I25
I40
V\ucd95\uad6c
p216
tp217
a(I40
I48
V\uadf8\ub7ec\ub098
p218
tp219
a(I48
I54
V\uc0ac
p220
tp221
a(I54
I74
V\uc8fc\ud669
p222
tp223
asg59
I32
sg60
(lp224
I4484
aI10564
aI11172
aI8597
aI364
aI11172
aI504
aI3052
aI1176
aI11172
aI5292
aI11172
aI7420
aI10857
asg62
(lp225
I4484
aI10564
aI11172
aI8597
aI364
aI11172
aI504
aI3052
aI1176
aI11172
aI5292
aI11172
aI7420
aI10857
aI-1
aI-1
aI-1
aI-1
aI-1
aI-1
aI-1
aI-1
aI-1
aI-1
aI-1
aI-1
aI-1
aI-1
aI-1
aI-1
aI-1
aI-1
asbsS'csbso'
p226
g37
(g38
g39
Ntp227
Rp228
(dp229
g43
V\ubd84\ud544 \ucd95\uad6c \uadf8\ub7ec\ub098 \uce60 \uc8fc\ud669
p230
sg45
g46
sg47
(lp231
(I0
I23
V\ubd84\ud544
p232
tp233
a(I23
I34
V\ucd95\uad6c
p234
tp235
a(I36
I41
V\uadf8\ub7ec\ub098
p236
tp237
a(I41
I56
V\uce60
p238
tp239
a(I56
I74
V\uc8fc\ud669
p240
tp241
asg59
I32
sg60
(lp242
I4484
aI10564
aI11172
aI8597
aI364
aI11172
aI504
aI3052
aI1176
aI11172
aI8800
aI11172
aI7420
aI10857
asg62
(lp243
I4484
aI10564
aI11172
aI8597
aI364
aI11172
aI504
aI3052
aI1176
aI11172
aI8800
aI11172
aI7420
aI10857
aI-1
aI-1
aI-1
aI-1
aI-1
aI-1
aI-1
aI-1
aI-1
aI-1
aI-1
aI-1
aI-1
aI-1
aI-1
aI-1
aI-1
aI-1
asbsS'csbfr'
p244
g37
(g38
g39
Ntp245
Rp246
(dp247
g43
V\ubd84\ud544 \ucd95\uad6c \uadf8\ub7ec\ub098 \uc0ac \ube68\uac15
p248
sg45
g46
sg47
(lp249
(I0
I23
V\ubd84\ud544
p250
tp251
a(I23
I40
V\ucd95\uad6c
p252
tp253
a(I40
I48
V\uadf8\ub7ec\ub098
p254
tp255
a(I48
I55
V\uc0ac
p256
tp257
a(I55
I74
V\ube68\uac15
p258
tp259
asg59
I32
sg60
(lp260
I4484
aI10564
aI11172
aI8597
aI364
aI11172
aI504
aI3052
aI1176
aI11172
aI5292
aI11172
aI4712
aI21
asg62
(lp261
I4484
aI10564
aI11172
aI8597
aI364
aI11172
aI504
aI3052
aI1176
aI11172
aI5292
aI11172
aI4712
aI21
aI-1
aI-1
aI-1
aI-1
aI-1
aI-1
aI-1
aI-1
aI-1
aI-1
aI-1
aI-1
aI-1
aI-1
aI-1
aI-1
aI-1
aI-1
asbsS'csbsr'
p262
g37
(g38
g39
Ntp263
Rp264
(dp265
g43
V\ubd84\ud544 \ucd95\uad6c \uadf8\ub7ec\ub098 \uce60 \uc8fc\ud669
p266
sg45
g46
sg47
(lp267
(I0
I23
V\ubd84\ud544
p268
tp269
a(I23
I34
V\ucd95\uad6c
p270
tp271
a(I38
I46
V\uadf8\ub7ec\ub098
p272
tp273
a(I46
I61
V\uce60
p274
tp275
a(I61
I74
V\uc8fc\ud669
p276
tp277
asg59
I32
sg60
(lp278
I4484
aI10564
aI11172
aI8597
aI364
aI11172
aI504
aI3052
aI1176
aI11172
aI8800
aI11172
aI7420
aI10857
asg62
(lp279
I4484
aI10564
aI11172
aI8597
aI364
aI11172
aI504
aI3052
aI1176
aI11172
aI8800
aI11172
aI7420
aI10857
aI-1
aI-1
aI-1
aI-1
aI-1
aI-1
aI-1
aI-1
aI-1
aI-1
aI-1
aI-1
aI-1
aI-1
aI-1
aI-1
aI-1
aI-1
asbsS'csbsy'
p280
g37
(g38
g39
Ntp281
Rp282
(dp283
g43
V\ubd84\ud544 \ucd95\uad6c \uadf8\ub7ec\ub098 \uce60 \ub178\ub791
p284
sg45
g46
sg47
(lp285
(I0
I20
V\ubd84\ud544
p286
tp287
a(I20
I35
V\ucd95\uad6c
p288
tp289
a(I35
I41
V\uadf8\ub7ec\ub098
p290
tp291
a(I41
I56
V\uce60
p292
tp293
a(I56
I74
V\ub178\ub791
p294
tp295
asg59
I32
sg60
(lp296
I4484
aI10564
aI11172
aI8597
aI364
aI11172
aI504
aI3052
aI1176
aI11172
aI8800
aI11172
aI1400
aI2961
asg62
(lp297
I4484
aI10564
aI11172
aI8597
aI364
aI11172
aI504
aI3052
aI1176
aI11172
aI8800
aI11172
aI1400
aI2961
aI-1
aI-1
aI-1
aI-1
aI-1
aI-1
aI-1
aI-1
aI-1
aI-1
aI-1
aI-1
aI-1
aI-1
aI-1
aI-1
aI-1
aI-1
asbsS'csbfy'
p298
g37
(g38
g39
Ntp299
Rp300
(dp301
g43
V\ubd84\ud544 \ucd95\uad6c \uadf8\ub7ec\ub098 \uc0ac \ub178\ub791
p302
sg45
g46
sg47
(lp303
(I0
I23
V\ubd84\ud544
p304
tp305
a(I23
I40
V\ucd95\uad6c
p306
tp307
a(I40
I46
V\uadf8\ub7ec\ub098
p308
tp309
a(I46
I59
V\uc0ac
p310
tp311
a(I59
I74
V\ub178\ub791
p312
tp313
asg59
I32
sg60
(lp314
I4484
aI10564
aI11172
aI8597
aI364
aI11172
aI504
aI3052
aI1176
aI11172
aI5292
aI11172
aI1400
aI2961
asg62
(lp315
I4484
aI10564
aI11172
aI8597
aI364
aI11172
aI504
aI3052
aI1176
aI11172
aI5292
aI11172
aI1400
aI2961
aI-1
aI-1
aI-1
aI-1
aI-1
aI-1
aI-1
aI-1
aI-1
aI-1
aI-1
aI-1
aI-1
aI-1
aI-1
aI-1
aI-1
aI-1
asbsS'cssso'
p316
g37
(g38
g39
Ntp317
Rp318
(dp319
g43
V\ubd84\ud544 \ucd95\uad6c \ub530\ub77c\uc11c \uce60 \ube68\uac15
p320
sg45
g46
sg47
(lp321
(I0
I20
V\ubd84\ud544
p322
tp323
a(I20
I32
V\ucd95\uad6c
p324
tp325
a(I32
I43
V\ub530\ub77c\uc11c
p326
tp327
a(I43
I52
V\uce60
p328
tp329
a(I52
I74
V\ube68\uac15
p330
tp331
asg59
I32
sg60
(lp332
I4484
aI10564
aI11172
aI8597
aI364
aI11172
aI2352
aI2940
aI5404
aI11172
aI8800
aI11172
aI4712
aI21
asg62
(lp333
I4484
aI10564
aI11172
aI8597
aI364
aI11172
aI2352
aI2940
aI5404
aI11172
aI8800
aI11172
aI4712
aI21
aI-1
aI-1
aI-1
aI-1
aI-1
aI-1
aI-1
aI-1
aI-1
aI-1
aI-1
aI-1
aI-1
aI-1
aI-1
aI-1
aI-1
aI-1
asbsS'csboo'
p334
g37
(g38
g39
Ntp335
Rp336
(dp337
g43
V\ubd84\ud544 \ucd95\uad6c \uadf8\ub7ec\ub098 \uc77c \uc8fc\ud669
p338
sg45
g46
sg47
(lp339
(I0
I17
V\ubd84\ud544
p340
tp341
a(I17
I40
V\ucd95\uad6c
p342
tp343
a(I40
I48
V\uadf8\ub7ec\ub098
p344
tp345
a(I48
I55
V\uc77c
p346
tp347
a(I55
I74
V\uc8fc\ud669
p348
tp349
asg59
I32
sg60
(lp350
I4484
aI10564
aI11172
aI8597
aI364
aI11172
aI504
aI3052
aI1176
aI11172
aI7036
aI11172
aI7420
aI10857
asg62
(lp351
I4484
aI10564
aI11172
aI8597
aI364
aI11172
aI504
aI3052
aI1176
aI11172
aI7036
aI11172
aI7420
aI10857
aI-1
aI-1
aI-1
aI-1
aI-1
aI-1
aI-1
aI-1
aI-1
aI-1
aI-1
aI-1
aI-1
aI-1
aI-1
aI-1
aI-1
aI-1
asbsS'csuso'
p352
g37
(g38
g39
Ntp353
Rp354
(dp355
g43
V\ubd84\ud544 \ucd95\uad6c \ud558\uc9c0\ub9cc \uce60 \uc8fc\ud669
p356
sg45
g46
sg47
(lp357
(I0
I22
V\ubd84\ud544
p358
tp359
a(I22
I34
V\ucd95\uad6c
p360
tp361
a(I34
I44
V\ud558\uc9c0\ub9cc
p362
tp363
a(I44
I58
V\uce60
p364
tp365
a(I58
I74
V\uc8fc\ud669
p366
tp367
asg59
I32
sg60
(lp368
I4484
aI10564
aI11172
aI8597
aI364
aI11172
aI10584
aI7616
aI3532
aI11172
aI8800
aI11172
aI7420
aI10857
asg62
(lp369
I4484
aI10564
aI11172
aI8597
aI364
aI11172
aI10584
aI7616
aI3532
aI11172
aI8800
aI11172
aI7420
aI10857
aI-1
aI-1
aI-1
aI-1
aI-1
aI-1
aI-1
aI-1
aI-1
aI-1
aI-1
aI-1
aI-1
aI-1
aI-1
aI-1
aI-1
aI-1
asbsS'csufo'
p370
g37
(g38
g39
Ntp371
Rp372
(dp373
g43
V\ubd84\ud544 \ucd95\uad6c \ud558\uc9c0\ub9cc \uc0ac \uc8fc\ud669
p374
sg45
g46
sg47
(lp375
(I0
I22
V\ubd84\ud544
p376
tp377
a(I22
I30
V\ucd95\uad6c
p378
tp379
a(I30
I43
V\ud558\uc9c0\ub9cc
p380
tp381
a(I43
I51
V\uc0ac
p382
tp383
a(I51
I74
V\uc8fc\ud669
p384
tp385
asg59
I32
sg60
(lp386
I4484
aI10564
aI11172
aI8597
aI364
aI11172
aI10584
aI7616
aI3532
aI11172
aI5292
aI11172
aI7420
aI10857
asg62
(lp387
I4484
aI10564
aI11172
aI8597
aI364
aI11172
aI10584
aI7616
aI3532
aI11172
aI5292
aI11172
aI7420
aI10857
aI-1
aI-1
aI-1
aI-1
aI-1
aI-1
aI-1
aI-1
aI-1
aI-1
aI-1
aI-1
aI-1
aI-1
aI-1
aI-1
aI-1
aI-1
asbsS'csssy'
p388
g37
(g38
g39
Ntp389
Rp390
(dp391
g43
V\ubd84\ud544 \ucd95\uad6c \ub530\ub77c\uc11c \uce60 \ub178\ub791
p392
sg45
g46
sg47
(lp393
(I0
I24
V\ubd84\ud544
p394
tp395
a(I24
I35
V\ucd95\uad6c
p396
tp397
a(I35
I45
V\ub530\ub77c\uc11c
p398
tp399
a(I45
I59
V\uce60
p400
tp401
a(I59
I74
V\ub178\ub791
p402
tp403
asg59
I32
sg60
(lp404
I4484
aI10564
aI11172
aI8597
aI364
aI11172
aI2352
aI2940
aI5404
aI11172
aI8800
aI11172
aI1400
aI2961
asg62
(lp405
I4484
aI10564
aI11172
aI8597
aI364
aI11172
aI2352
aI2940
aI5404
aI11172
aI8800
aI11172
aI1400
aI2961
aI-1
aI-1
aI-1
aI-1
aI-1
aI-1
aI-1
aI-1
aI-1
aI-1
aI-1
aI-1
aI-1
aI-1
aI-1
aI-1
aI-1
aI-1
asbsS'csusr'
p406
g37
(g38
g39
Ntp407
Rp408
(dp409
g43
V\ubd84\ud544 \ucd95\uad6c \ud558\uc9c0\ub9cc \uce60 \ube68\uac15
p410
sg45
g46
sg47
(lp411
(I0
I20
V\ubd84\ud544
p412
tp413
a(I20
I34
V\ucd95\uad6c
p414
tp415
a(I34
I45
V\ud558\uc9c0\ub9cc
p416
tp417
a(I45
I57
V\uce60
p418
tp419
a(I57
I74
V\ube68\uac15
p420
tp421
asg59
I32
sg60
(lp422
I4484
aI10564
aI11172
aI8597
aI364
aI11172
aI10584
aI7616
aI3532
aI11172
aI8800
aI11172
aI4712
aI21
asg62
(lp423
I4484
aI10564
aI11172
aI8597
aI364
aI11172
aI10584
aI7616
aI3532
aI11172
aI8800
aI11172
aI4712
aI21
aI-1
aI-1
aI-1
aI-1
aI-1
aI-1
aI-1
aI-1
aI-1
aI-1
aI-1
aI-1
aI-1
aI-1
aI-1
aI-1
aI-1
aI-1
asbsS'csufr'
p424
g37
(g38
g39
Ntp425
Rp426
(dp427
g43
V\ubd84\ud544 \ucd95\uad6c \ud558\uc9c0\ub9cc \uc0ac \ube68\uac15
p428
sg45
g46
sg47
(lp429
(I0
I22
V\ubd84\ud544
p430
tp431
a(I22
I30
V\ucd95\uad6c
p432
tp433
a(I30
I44
V\ud558\uc9c0\ub9cc
p434
tp435
a(I44
I56
V\uc0ac
p436
tp437
a(I56
I74
V\ube68\uac15
p438
tp439
asg59
I32
sg60
(lp440
I4484
aI10564
aI11172
aI8597
aI364
aI11172
aI10584
aI7616
aI3532
aI11172
aI5292
aI11172
aI4712
aI21
asg62
(lp441
I4484
aI10564
aI11172
aI8597
aI364
aI11172
aI10584
aI7616
aI3532
aI11172
aI5292
aI11172
aI4712
aI21
aI-1
aI-1
aI-1
aI-1
aI-1
aI-1
aI-1
aI-1
aI-1
aI-1
aI-1
aI-1
aI-1
aI-1
aI-1
aI-1
aI-1
aI-1
asbsS'csbor'
p442
g37
(g38
g39
Ntp443
Rp444
(dp445
g43
V\ubd84\ud544 \ucd95\uad6c \uadf8\ub7ec\ub098 \uc77c \uc8fc\ud669
p446
sg45
g46
sg47
(lp447
(I0
I19
V\ubd84\ud544
p448
tp449
a(I19
I38
V\ucd95\uad6c
p450
tp451
a(I38
I47
V\uadf8\ub7ec\ub098
p452
tp453
a(I47
I55
V\uc77c
p454
tp455
a(I55
I74
V\uc8fc\ud669
p456
tp457
asg59
I32
sg60
(lp458
I4484
aI10564
aI11172
aI8597
aI364
aI11172
aI504
aI3052
aI1176
aI11172
aI7036
aI11172
aI7420
aI10857
asg62
(lp459
I4484
aI10564
aI11172
aI8597
aI364
aI11172
aI504
aI3052
aI1176
aI11172
aI7036
aI11172
aI7420
aI10857
aI-1
aI-1
aI-1
aI-1
aI-1
aI-1
aI-1
aI-1
aI-1
aI-1
aI-1
aI-1
aI-1
aI-1
aI-1
aI-1
aI-1
aI-1
asbsS'csufy'
p460
g37
(g38
g39
Ntp461
Rp462
(dp463
g43
V\ubd84\ud544 \ucd95\uad6c \ud558\uc9c0\ub9cc \uc0ac \ub178\ub791
p464
sg45
g46
sg47
(lp465
(I0
I20
V\ubd84\ud544
p466
tp467
a(I20
I30
V\ucd95\uad6c
p468
tp469
a(I30
I41
V\ud558\uc9c0\ub9cc
p470
tp471
a(I41
I52
V\uc0ac
p472
tp473
a(I52
I74
V\ub178\ub791
p474
tp475
asg59
I32
sg60
(lp476
I4484
aI10564
aI11172
aI8597
aI364
aI11172
aI10584
aI7616
aI3532
aI11172
aI5292
aI11172
aI1400
aI2961
asg62
(lp477
I4484
aI10564
aI11172
aI8597
aI364
aI11172
aI10584
aI7616
aI3532
aI11172
aI5292
aI11172
aI1400
aI2961
aI-1
aI-1
aI-1
aI-1
aI-1
aI-1
aI-1
aI-1
aI-1
aI-1
aI-1
aI-1
aI-1
aI-1
aI-1
aI-1
aI-1
aI-1
asbsS'csusy'
p478
g37
(g38
g39
Ntp479
Rp480
(dp481
g43
V\ubd84\ud544 \ucd95\uad6c \ud558\uc9c0\ub9cc \uce60 \ub178\ub791
p482
sg45
g46
sg47
(lp483
(I0
I22
V\ubd84\ud544
p484
tp485
a(I22
I34
V\ucd95\uad6c
p486
tp487
a(I34
I45
V\ud558\uc9c0\ub9cc
p488
tp489
a(I45
I61
V\uce60
p490
tp491
a(I61
I74
V\ub178\ub791
p492
tp493
asg59
I32
sg60
(lp494
I4484
aI10564
aI11172
aI8597
aI364
aI11172
aI10584
aI7616
aI3532
aI11172
aI8800
aI11172
aI1400
aI2961
asg62
(lp495
I4484
aI10564
aI11172
aI8597
aI364
aI11172
aI10584
aI7616
aI3532
aI11172
aI8800
aI11172
aI1400
aI2961
aI-1
aI-1
aI-1
aI-1
aI-1
aI-1
aI-1
aI-1
aI-1
aI-1
aI-1
aI-1
aI-1
aI-1
aI-1
aI-1
aI-1
aI-1
asbsS'csssr'
p496
g37
(g38
g39
Ntp497
Rp498
(dp499
g43
V\ubd84\ud544 \ucd95\uad6c \ub530\ub77c\uc11c \uce60 \ube68\uac15
p500
sg45
g46
sg47
(lp501
(I0
I24
V\ubd84\ud544
p502
tp503
a(I24
I35
V\ucd95\uad6c
p504
tp505
a(I35
I46
V\ub530\ub77c\uc11c
p506
tp507
a(I46
I55
V\uce60
p508
tp509
a(I55
I74
V\ube68\uac15
p510
tp511
asg59
I32
sg60
(lp512
I4484
aI10564
aI11172
aI8597
aI364
aI11172
aI2352
aI2940
aI5404
aI11172
aI8800
aI11172
aI4712
aI21
asg62
(lp513
I4484
aI10564
aI11172
aI8597
aI364
aI11172
aI2352
aI2940
aI5404
aI11172
aI8800
aI11172
aI4712
aI21
aI-1
aI-1
aI-1
aI-1
aI-1
aI-1
aI-1
aI-1
aI-1
aI-1
aI-1
aI-1
aI-1
aI-1
aI-1
aI-1
aI-1
aI-1
asbsS'csboy'
p514
g37
(g38
g39
Ntp515
Rp516
(dp517
g43
V\ubd84\ud544 \ucd95\uad6c \uadf8\ub7ec\ub098 \uc77c \uc8fc\ud669
p518
sg45
g46
sg47
(lp519
(I0
I18
V\ubd84\ud544
p520
tp521
a(I18
I36
V\ucd95\uad6c
p522
tp523
a(I36
I47
V\uadf8\ub7ec\ub098
p524
tp525
a(I47
I53
V\uc77c
p526
tp527
a(I53
I74
V\uc8fc\ud669
p528
tp529
asg59
I32
sg60
(lp530
I4484
aI10564
aI11172
aI8597
aI364
aI11172
aI504
aI3052
aI1176
aI11172
aI7036
aI11172
aI7420
aI10857
asg62
(lp531
I4484
aI10564
aI11172
aI8597
aI364
aI11172
aI504
aI3052
aI1176
aI11172
aI7036
aI11172
aI7420
aI10857
aI-1
aI-1
aI-1
aI-1
aI-1
aI-1
aI-1
aI-1
aI-1
aI-1
aI-1
aI-1
aI-1
aI-1
aI-1
aI-1
aI-1
aI-1
asbstp532
.