((lp0
S'/home/sun/LipNet/LipNet/training/overlapped_speakers/s7/datasets/train/s1/abcde1'
p1
aS'/home/sun/LipNet/LipNet/training/overlapped_speakers/s7/datasets/train/s1/abcde16'
p2
aS'/home/sun/LipNet/LipNet/training/overlapped_speakers/s7/datasets/train/s1/abcde20'
p3
aS'/home/sun/LipNet/LipNet/training/overlapped_speakers/s7/datasets/train/s1/abcde10'
p4
aS'/home/sun/LipNet/LipNet/training/overlapped_speakers/s7/datasets/train/s1/abcde3'
p5
aS'/home/sun/LipNet/LipNet/training/overlapped_speakers/s7/datasets/train/s1/abcde24'
p6
aS'/home/sun/LipNet/LipNet/training/overlapped_speakers/s7/datasets/train/s1/abcde23'
p7
aS'/home/sun/LipNet/LipNet/training/overlapped_speakers/s7/datasets/train/s1/abcde21'
p8
aS'/home/sun/LipNet/LipNet/training/overlapped_speakers/s7/datasets/train/s1/abcde13'
p9
aS'/home/sun/LipNet/LipNet/training/overlapped_speakers/s7/datasets/train/s1/abcde18'
p10
aS'/home/sun/LipNet/LipNet/training/overlapped_speakers/s7/datasets/train/s1/abcde4'
p11
aS'/home/sun/LipNet/LipNet/training/overlapped_speakers/s7/datasets/train/s1/abcde15'
p12
aS'/home/sun/LipNet/LipNet/training/overlapped_speakers/s7/datasets/train/s1/abcde9'
p13
aS'/home/sun/LipNet/LipNet/training/overlapped_speakers/s7/datasets/train/s1/abcde7'
p14
aS'/home/sun/LipNet/LipNet/training/overlapped_speakers/s7/datasets/train/s1/abcde11'
p15
aS'/home/sun/LipNet/LipNet/training/overlapped_speakers/s7/datasets/train/s1/abcde6'
p16
aS'/home/sun/LipNet/LipNet/training/overlapped_speakers/s7/datasets/train/s1/abcde17'
p17
aS'/home/sun/LipNet/LipNet/training/overlapped_speakers/s7/datasets/train/s1/abcde2'
p18
aS'/home/sun/LipNet/LipNet/training/overlapped_speakers/s7/datasets/train/s1/abcde12'
p19
aS'/home/sun/LipNet/LipNet/training/overlapped_speakers/s7/datasets/train/s1/abcde19'
p20
aS'/home/sun/LipNet/LipNet/training/overlapped_speakers/s7/datasets/train/s1/abcde22'
p21
aS'/home/sun/LipNet/LipNet/training/overlapped_speakers/s7/datasets/train/s1/abcde5'
p22
aS'/home/sun/LipNet/LipNet/training/overlapped_speakers/s7/datasets/train/s1/abcde14'
p23
aS'/home/sun/LipNet/LipNet/training/overlapped_speakers/s7/datasets/train/s1/abcde8'
p24
a(lp25
S'/home/sun/LipNet/LipNet/training/overlapped_speakers/s7/datasets/val/s1/abcde1'
p26
aS'/home/sun/LipNet/LipNet/training/overlapped_speakers/s7/datasets/val/s1/abcde3'
p27
aS'/home/sun/LipNet/LipNet/training/overlapped_speakers/s7/datasets/val/s1/abcde4'
p28
aS'/home/sun/LipNet/LipNet/training/overlapped_speakers/s7/datasets/val/s1/abcde2'
p29
a(dp30
S'abcde24'
p31
ccopy_reg
_reconstructor
p32
(clipnet.lipreading.aligns
Align
p33
c__builtin__
object
p34
Ntp35
Rp36
(dp37
S'sentence'
p38
V\uc774
p39
sS'label_func'
p40
clipnet.lipreading.helpers
text_to_labels
p41
sS'align'
p42
(lp43
(I19
I74
g39
tp44
asS'absolute_max_string_len'
p45
I2
sS'label'
p46
(lp47
I7028
asS'padded_label'
p48
(lp49
I7028
aI-1
asbsS'abcde20'
p50
g32
(g33
g34
Ntp51
Rp52
(dp53
g38
V\uc694
p54
sg40
g41
sg42
(lp55
(I4
I74
g54
tp56
asg45
I2
sg46
(lp57
I6804
asg48
(lp58
I6804
aI-1
asbsS'abcde21'
p59
g32
(g33
g34
Ntp60
Rp61
(dp62
g38
V\uc6b0
p63
sg40
g41
sg42
(lp64
(I10
I74
g63
tp65
asg45
I2
sg46
(lp66
I6832
asg48
(lp67
I6832
aI-1
asbsS'abcde22'
p68
g32
(g33
g34
Ntp69
Rp70
(dp71
g38
V\uc720
p72
sg40
g41
sg42
(lp73
(I13
I74
g72
tp74
asg45
I2
sg46
(lp75
I6944
asg48
(lp76
I6944
aI-1
asbsS'abcde23'
p77
g32
(g33
g34
Ntp78
Rp79
(dp80
g38
V\uc73c
p81
sg40
g41
sg42
(lp82
(I22
I74
g81
tp83
asg45
I2
sg46
(lp84
I6972
asg48
(lp85
I6972
aI-1
asbsS'abcde9'
p86
g32
(g33
g34
Ntp87
Rp88
(dp89
g38
V\uc9c0\uc752
p90
sg40
g41
sg42
(lp91
(I21
I74
g90
tp92
asg45
I2
sg46
(lp93
I7616
aI6994
asg48
(lp94
I7616
aI6994
asbsS'abcde8'
p95
g32
(g33
g34
Ntp96
Rp97
(dp98
g38
V\uc774\uc751
p99
sg40
g41
sg42
(lp100
(I20
I74
g99
tp101
asg45
I2
sg46
(lp102
I7028
aI6993
asg48
(lp103
I7028
aI6993
asbsS'abcde5'
p104
g32
(g33
g34
Ntp105
Rp106
(dp107
g38
V\ubbf8\uc74c
p108
sg40
g41
sg42
(lp109
(I23
I74
g108
tp110
asg45
I2
sg46
(lp111
I4088
aI6988
asg48
(lp112
I4088
aI6988
asbsS'abcde4'
p113
g32
(g33
g34
Ntp114
Rp115
(dp116
g38
V\ub9ac\uc744
p117
sg40
g41
sg42
(lp118
(I29
I74
g117
tp119
asg45
I2
sg46
(lp120
I3500
aI6980
asg48
(lp121
I3500
aI6980
asbsS'abcde7'
p122
g32
(g33
g34
Ntp123
Rp124
(dp125
g38
V\uc2dc\uc637
p126
sg40
g41
sg42
(lp127
(I15
I74
g126
tp128
asg45
I2
sg46
(lp129
I5852
aI6711
asg48
(lp130
I5852
aI6711
asbsS'abcde6'
p131
g32
(g33
g34
Ntp132
Rp133
(dp134
g38
V\ube44\uc74d
p135
sg40
g41
sg42
(lp136
(I29
I74
g135
tp137
asg45
I2
sg46
(lp138
I4676
aI6989
asg48
(lp139
I4676
aI6989
asbsS'abcde1'
p140
g32
(g33
g34
Ntp141
Rp142
(dp143
g38
V\uae30\uc5ed
p144
sg40
g41
sg42
(lp145
(I13
I74
g144
tp146
asg45
I2
sg46
(lp147
I560
aI6637
asg48
(lp148
I560
aI6637
asbsS'abcde3'
p149
g32
(g33
g34
Ntp150
Rp151
(dp152
g38
V\ub514\uadff
p153
sg40
g41
sg42
(lp154
(I17
I74
g153
tp155
asg45
I2
sg46
(lp156
I2324
aI511
asg48
(lp157
I2324
aI511
asbsS'abcde2'
p158
g32
(g33
g34
Ntp159
Rp160
(dp161
g38
V\ub2c8\uc740
p162
sg40
g41
sg42
(lp163
(I18
I74
g162
tp164
asg45
I2
sg46
(lp165
I1736
aI6976
asg48
(lp166
I1736
aI6976
asbsS'abcde19'
p167
g32
(g33
g34
Ntp168
Rp169
(dp170
g38
V\uc624
p171
sg40
g41
sg42
(lp172
(I20
I74
g171
tp173
asg45
I2
sg46
(lp174
I6692
asg48
(lp175
I6692
aI-1
asbsS'abcde18'
p176
g32
(g33
g34
Ntp177
Rp178
(dp179
g38
V\uc5ec
p180
sg40
g41
sg42
(lp181
(I21
I74
g180
tp182
asg45
I2
sg46
(lp183
I6636
asg48
(lp184
I6636
aI-1
asbsS'abcde11'
p185
g32
(g33
g34
Ntp186
Rp187
(dp188
g38
V\ud0a4\uc754
p189
sg40
g41
sg42
(lp190
(I30
I74
g189
tp191
asg45
I2
sg46
(lp192
I9380
aI6996
asg48
(lp193
I9380
aI6996
asbsS'abcde10'
p194
g32
(g33
g34
Ntp195
Rp196
(dp197
g38
V\uce58\uc753
p198
sg40
g41
sg42
(lp199
(I25
I74
g198
tp200
asg45
I2
sg46
(lp201
I8792
aI6995
asg48
(lp202
I8792
aI6995
asbsS'abcde13'
p203
g32
(g33
g34
Ntp204
Rp205
(dp206
g38
V\ud53c\uc756
p207
sg40
g41
sg42
(lp208
(I33
I74
g207
tp209
asg45
I2
sg46
(lp210
I10556
aI6998
asg48
(lp211
I10556
aI6998
asbsS'abcde12'
p212
g32
(g33
g34
Ntp213
Rp214
(dp215
g38
V\ud2f0\uc755
p216
sg40
g41
sg42
(lp217
(I28
I74
g216
tp218
asg45
I2
sg46
(lp219
I9968
aI6997
asg48
(lp220
I9968
aI6997
asbsS'abcde15'
p221
g32
(g33
g34
Ntp222
Rp223
(dp224
g38
V\uc544
p225
sg40
g41
sg42
(lp226
(I26
I74
g225
tp227
asg45
I2
sg46
(lp228
I6468
asg48
(lp229
I6468
aI-1
asbsS'abcde14'
p230
g32
(g33
g34
Ntp231
Rp232
(dp233
g38
V\ud788\uc757
p234
sg40
g41
sg42
(lp235
(I23
I74
g234
tp236
asg45
I2
sg46
(lp237
I11144
aI6999
asg48
(lp238
I11144
aI6999
asbsS'abcde17'
p239
g32
(g33
g34
Ntp240
Rp241
(dp242
g38
V\uc5b4
p243
sg40
g41
sg42
(lp244
(I10
I74
g243
tp245
asg45
I2
sg46
(lp246
I6580
asg48
(lp247
I6580
aI-1
asbsS'abcde16'
p248
g32
(g33
g34
Ntp249
Rp250
(dp251
g38
V\uc57c
p252
sg40
g41
sg42
(lp253
(I16
I74
g252
tp254
asg45
I2
sg46
(lp255
I6524
asg48
(lp256
I6524
aI-1
asbstp257
.